; Function Attrs: nounwind uwtable
define internal fastcc void @set_hash_references(ptr noundef %0, ptr noundef nonnull captures(none) %1, i32 noundef %2) unnamed_addr #0 {
  %4 = alloca %struct.fix_upper_expr_context, align 8
  %5 = getelementptr inbounds nuw i8, ptr %1, i64 64
  %6 = load ptr, ptr %5, align 8
  %7 = getelementptr inbounds nuw i8, ptr %6, i64 48
  %8 = load ptr, ptr %7, align 8
  %.not.i.i = icmp eq ptr %8, null
  br i1 %.not.i.i, label %list_length.exit.i, label %9

9:                                                ; preds = %3
  %10 = getelementptr inbounds nuw i8, ptr %8, i64 4
  %11 = load i32, ptr %10, align 4
  %12 = sext i32 %11 to i64
  %13 = shl nsw i64 %12, 4
  %14 = add nsw i64 %13, 16
  br label %list_length.exit.i

list_length.exit.i:                               ; preds = %9, %3
  %15 = phi i64 [ %14, %9 ], [ 16, %3 ]
  %16 = tail call ptr @palloc(i64 noundef %15) #8
  store ptr %8, ptr %16, align 8
  %17 = getelementptr inbounds nuw i8, ptr %16, i64 12
  store i8 0, ptr %17, align 4
  %18 = getelementptr inbounds nuw i8, ptr %16, i64 13
  store i8 0, ptr %18, align 1
  %19 = getelementptr inbounds nuw i8, ptr %16, i64 16
  %20 = getelementptr inbounds nuw i8, ptr %8, i64 4
  br i1 %.not.i.i, label %build_tlist_index.exit, label %.lr.ph.i

.lr.ph.i:                                         ; preds = %list_length.exit.i
  %21 = getelementptr inbounds nuw i8, ptr %8, i64 16
  %22 = load i32, ptr %20, align 4
  %23 = icmp sgt i32 %22, 0
  br i1 %23, label %.lr.ph49.i, label %build_tlist_index.exit

.lr.ph49.i:                                       ; preds = %.lr.ph.i, %45
  %indvars.iv.i = phi i64 [ %indvars.iv.next.i, %45 ], [ 0, %.lr.ph.i ]
  %.04347.i = phi ptr [ %.1.i, %45 ], [ %19, %.lr.ph.i ]
  %24 = load ptr, ptr %21, align 8
  %25 = getelementptr inbounds nuw %union.ListCell, ptr %24, i64 %indvars.iv.i
  %26 = load ptr, ptr %25, align 8
  %27 = getelementptr inbounds nuw i8, ptr %26, i64 8
  %28 = load ptr, ptr %27, align 8
  %.not37.i = icmp eq ptr %28, null
  br i1 %.not37.i, label %.thread41.i, label %29

29:                                               ; preds = %.lr.ph49.i
  %30 = load i32, ptr %28, align 4
  switch i32 %30, label %.thread41.i [
    i32 6, label %31
    i32 318, label %44
  ]

31:                                               ; preds = %29
  %32 = getelementptr inbounds nuw i8, ptr %28, i64 4
  %33 = load i32, ptr %32, align 4
  store i32 %33, ptr %.04347.i, align 8
  %34 = getelementptr inbounds nuw i8, ptr %28, i64 8
  %35 = load i16, ptr %34, align 8
  %36 = getelementptr inbounds nuw i8, ptr %.04347.i, i64 4
  store i16 %35, ptr %36, align 4
  %37 = getelementptr inbounds nuw i8, ptr %26, i64 16
  %38 = load i16, ptr %37, align 8
  %39 = getelementptr inbounds nuw i8, ptr %.04347.i, i64 6
  store i16 %38, ptr %39, align 2
  %40 = getelementptr inbounds nuw i8, ptr %28, i64 24
  %41 = load ptr, ptr %40, align 8
  %42 = getelementptr inbounds nuw i8, ptr %.04347.i, i64 8
  store ptr %41, ptr %42, align 8
  %43 = getelementptr inbounds nuw i8, ptr %.04347.i, i64 16
  br label %45

44:                                               ; preds = %29
  store i8 1, ptr %17, align 4
  br label %45

.thread41.i:                                      ; preds = %29, %.lr.ph49.i
  store i8 1, ptr %18, align 1
  br label %45

45:                                               ; preds = %.thread41.i, %44, %31
  %.1.i = phi ptr [ %43, %31 ], [ %.04347.i, %44 ], [ %.04347.i, %.thread41.i ]
  %indvars.iv.next.i = add nuw nsw i64 %indvars.iv.i, 1
  %46 = load i32, ptr %20, align 4
  %47 = sext i32 %46 to i64
  %48 = icmp slt i64 %indvars.iv.next.i, %47
  br i1 %48, label %.lr.ph49.i, label %build_tlist_index.exit

build_tlist_index.exit:                           ; preds = %45, %list_length.exit.i, %.lr.ph.i
  %.0.lcssa.i = phi ptr [ %19, %list_length.exit.i ], [ %19, %.lr.ph.i ], [ %.1.i, %45 ]
  %49 = ptrtoint ptr %.0.lcssa.i to i64
  %50 = ptrtoint ptr %19 to i64
  %51 = sub i64 %49, %50
  %52 = lshr exact i64 %51, 4
  %53 = trunc i64 %52 to i32
  %54 = getelementptr inbounds nuw i8, ptr %16, i64 8
  store i32 %53, ptr %54, align 8
  %55 = getelementptr inbounds nuw i8, ptr %1, i64 104
  %56 = load ptr, ptr %55, align 8
  %57 = getelementptr inbounds nuw i8, ptr %1, i64 24
  %58 = load double, ptr %57, align 8
  %59 = fmul double %58, 2.000000e+00
  call void @llvm.lifetime.start.p0(i64 40, ptr nonnull %4) #8
  store ptr %0, ptr %4, align 8
  %60 = getelementptr inbounds nuw i8, ptr %4, i64 8
  store ptr %16, ptr %60, align 8
  %61 = getelementptr inbounds nuw i8, ptr %4, i64 16
  store i32 -2, ptr %61, align 8
  %62 = getelementptr inbounds nuw i8, ptr %4, i64 20
  store i32 %2, ptr %62, align 4
  %63 = getelementptr inbounds nuw i8, ptr %4, i64 24
  store i32 0, ptr %63, align 8
  %64 = getelementptr inbounds nuw i8, ptr %4, i64 32
  store double %59, ptr %64, align 8
  %65 = call ptr @fix_upper_expr_mutator(ptr noundef %56, ptr noundef nonnull %4)
  call void @llvm.lifetime.end.p0(i64 40, ptr nonnull %4) #8
  store ptr %65, ptr %55, align 8
  call fastcc void @set_dummy_tlist_references(ptr noundef %1, i32 noundef %2)
  ret void
}